; Function Attrs: mustprogress nounwind uwtable
define dso_local void @_ZN5clang11DeclContext27loadLazyLocalLexicalLookupsEv(ptr noundef nonnull align 8 dereferenceable(32) %0) local_unnamed_addr #0 align 2 {
  %2 = alloca %"class.llvm::SmallVector.646", align 8
  %3 = getelementptr inbounds nuw i8, ptr %0, i64 8
  %4 = load i16, ptr %3, align 8
  %5 = and i16 %4, 1024
  %.not8 = icmp eq i16 %5, 0
  br i1 %.not8, label %_ZN4llvm11SmallVectorIPN5clang11DeclContextELj2EED2Ev.exit, label %6

6:                                                ; preds = %1
  %7 = getelementptr inbounds i8, ptr %2, i64 16
  call void @_ZN4llvm15SmallVectorBaseIjEC2EPvm(ptr noundef nonnull align 8 dereferenceable(16) %2, ptr noundef nonnull %7, i64 noundef 2) #27
  call void @_ZN5clang11DeclContext18collectAllContextsERN4llvm15SmallVectorImplIPS0_EE(ptr noundef nonnull align 8 dereferenceable(32) %0, ptr noundef nonnull align 8 dereferenceable(16) %2)
  %8 = load ptr, ptr %2, align 8
  %9 = call noundef i64 @_ZNK4llvm15SmallVectorBaseIjE4sizeEv(ptr noundef nonnull align 8 dereferenceable(16) %2) #27
  %10 = getelementptr inbounds ptr, ptr %8, i64 %9
  %.not9 = icmp eq i64 %9, 0
  br i1 %.not9, label %._crit_edge, label %.lr.ph

.lr.ph:                                           ; preds = %6, %.lr.ph
  %.010 = phi ptr [ %15, %.lr.ph ], [ %8, %6 ]
  %11 = load ptr, ptr %.010, align 8
  %12 = load i16, ptr %3, align 8
  %13 = and i16 %12, 256
  %14 = icmp ne i16 %13, 0
  call void @_ZN5clang11DeclContext15buildLookupImplEPS0_b(ptr noundef nonnull align 8 dereferenceable(32) %0, ptr noundef %11, i1 noundef zeroext %14)
  %15 = getelementptr inbounds i8, ptr %.010, i64 8
  %.not = icmp eq ptr %15, %10
  br i1 %.not, label %._crit_edge, label %.lr.ph

._crit_edge:                                      ; preds = %.lr.ph, %6
  %16 = load i16, ptr %3, align 8
  %17 = and i16 %16, -1025
  store i16 %17, ptr %3, align 8
  %18 = call noundef i64 @_ZNK4llvm15SmallVectorBaseIjE4sizeEv(ptr noundef nonnull align 8 dereferenceable(16) %2) #27
  %19 = load ptr, ptr %2, align 8
  %20 = icmp eq ptr %19, %7
  br i1 %20, label %_ZN4llvm11SmallVectorIPN5clang11DeclContextELj2EED2Ev.exit, label %21

21:                                               ; preds = %._crit_edge
  call void @free(ptr noundef %19) #27
  br label %_ZN4llvm11SmallVectorIPN5clang11DeclContextELj2EED2Ev.exit

_ZN4llvm11SmallVectorIPN5clang11DeclContextELj2EED2Ev.exit: ; preds = %21, %._crit_edge, %1
  ret void
}